target datalayout = "e-m:e-p270:32:32-p271:32:32-p272:64:64-i64:64-i128:128-f80:128-n8:16:32:64-S128"
target triple = "x86_64-unknown-linux-gnu"

%struct.UText = type { i32, i32, i32, i32, i64, i32, i32, i64, i32, i32, ptr, ptr, ptr, ptr, ptr, ptr, ptr, ptr, i64, i32, i32, i64, i32, i32 }
%struct.UTextFuncs = type { i32, i32, i32, i32, ptr, ptr, ptr, ptr, ptr, ptr, ptr, ptr, ptr, ptr, ptr, ptr }

; Function Attrs: mustprogress nounwind uwtable
define internal noundef signext i8 @_ZL9U_FAILURE10UErrorCode(i32 noundef %code) #1 {
entry:
  %code.addr = alloca i32, align 4
  store i32 %code, ptr %code.addr, align 4
  %0 = load i32, ptr %code.addr, align 4
  %cmp = icmp sgt i32 %0, 0
  %conv = zext i1 %cmp to i8
  ret i8 %conv
}

; Function Attrs: mustprogress uwtable
define void @utext_copy_75(ptr noundef %ut, i64 noundef %nativeStart, i64 noundef %nativeLimit, i64 noundef %destIndex, i8 noundef signext %move, ptr noundef %status) #0 {
entry:
  %ut.addr = alloca ptr, align 8
  %nativeStart.addr = alloca i64, align 8
  %nativeLimit.addr = alloca i64, align 8
  %destIndex.addr = alloca i64, align 8
  %move.addr = alloca i8, align 1
  %status.addr = alloca ptr, align 8
  store ptr %ut, ptr %ut.addr, align 8
  store i64 %nativeStart, ptr %nativeStart.addr, align 8
  store i64 %nativeLimit, ptr %nativeLimit.addr, align 8
  store i64 %destIndex, ptr %destIndex.addr, align 8
  store i8 %move, ptr %move.addr, align 1
  store ptr %status, ptr %status.addr, align 8
  %0 = load ptr, ptr %status.addr, align 8
  %1 = load i32, ptr %0, align 4
  %call = call noundef signext i8 @_ZL9U_FAILURE10UErrorCode(i32 noundef %1)
  %tobool = icmp ne i8 %call, 0
  br i1 %tobool, label %if.then, label %if.end

if.then:                                          ; preds = %entry
  br label %return

if.end:                                           ; preds = %entry
  %2 = load ptr, ptr %ut.addr, align 8
  %providerProperties = getelementptr inbounds %struct.UText, ptr %2, i32 0, i32 2
  %3 = load i32, ptr %providerProperties, align 8
  %and = and i32 %3, 8
  %cmp = icmp eq i32 %and, 0
  br i1 %cmp, label %if.then1, label %if.end2

if.then1:                                         ; preds = %if.end
  %4 = load ptr, ptr %status.addr, align 8
  store i32 30, ptr %4, align 4
  br label %return

if.end2:                                          ; preds = %if.end
  %5 = load ptr, ptr %ut.addr, align 8
  %pFuncs = getelementptr inbounds %struct.UText, ptr %5, i32 0, i32 11
  %6 = load ptr, ptr %pFuncs, align 8
  %copy = getelementptr inbounds %struct.UTextFuncs, ptr %6, i32 0, i32 9
  %7 = load ptr, ptr %copy, align 8
  %8 = load ptr, ptr %ut.addr, align 8
  %9 = load i64, ptr %nativeStart.addr, align 8
  %10 = load i64, ptr %nativeLimit.addr, align 8
  %11 = load i64, ptr %destIndex.addr, align 8
  %12 = load i8, ptr %move.addr, align 1
  %13 = load ptr, ptr %status.addr, align 8
  call void %7(ptr noundef %8, i64 noundef %9, i64 noundef %10, i64 noundef %11, i8 noundef signext %12, ptr noundef %13)
  br label %return

return:                                           ; preds = %if.end2, %if.then1, %if.then
  ret void
}