; Function Attrs: mustprogress uwtable
define void @utext_copy_75(ptr noundef %ut, i64 noundef %nativeStart, i64 noundef %nativeLimit, i64 noundef %destIndex, i8 noundef signext %move, ptr noundef %status) local_unnamed_addr #0 {
entry:
  %0 = load i32, ptr %status, align 4
  %cmp.i = icmp slt i32 %0, 1
  br i1 %cmp.i, label %if.end, label %return

if.end:                                           ; preds = %entry
  %providerProperties = getelementptr inbounds i8, ptr %ut, i64 8
  %1 = load i32, ptr %providerProperties, align 8
  %and = and i32 %1, 8
  %cmp = icmp eq i32 %and, 0
  br i1 %cmp, label %if.then1, label %if.end2

if.then1:                                         ; preds = %if.end
  store i32 30, ptr %status, align 4
  br label %return

if.end2:                                          ; preds = %if.end
  %pFuncs = getelementptr inbounds i8, ptr %ut, i64 56
  %2 = load ptr, ptr %pFuncs, align 8
  %copy = getelementptr inbounds i8, ptr %2, i64 56
  %3 = load ptr, ptr %copy, align 8
  tail call void %3(ptr noundef nonnull %ut, i64 noundef %nativeStart, i64 noundef %nativeLimit, i64 noundef %destIndex, i8 noundef signext %move, ptr noundef nonnull %status)
  br label %return

return:                                           ; preds = %entry, %if.end2, %if.then1
  ret void
}